target datalayout = "e-m:e-p270:32:32-p271:32:32-p272:64:64-i64:64-i128:128-f80:128-n8:16:32:64-S128"
target triple = "x86_64-pc-linux-gnu"

%struct._zval_struct = type { %union._zend_value, %union.anon, %union.anon.2 }
%union._zend_value = type { i64 }
%union.anon = type { i32 }
%union.anon.2 = type { i32 }
%struct.anon.0 = type { i8, i8, %union.anon.1 }
%union.anon.1 = type { i16 }

@.str.35 = private unnamed_addr constant [69 x i8] c"Attribute value must be of type int for selected attribute, %s given\00", align 1

; Function Attrs: alwaysinline nounwind uwtable
define internal i64 @zval_get_long(ptr noundef %0) #3 {
  %2 = alloca ptr, align 8
  store ptr %0, ptr %2, align 8, !tbaa !13
  %3 = load ptr, ptr %2, align 8, !tbaa !13
  %4 = call zeroext i8 @zval_get_type(ptr noundef %3)
  %5 = zext i8 %4 to i32
  %6 = icmp eq i32 %5, 4
  %7 = xor i1 %6, true
  %8 = xor i1 %7, true
  %9 = zext i1 %8 to i32
  %10 = sext i32 %9 to i64
  %11 = call i64 @llvm.expect.i64(i64 %10, i64 1)
  %12 = icmp ne i64 %11, 0
  br i1 %12, label %13, label %17

13:                                               ; preds = %1
  %14 = load ptr, ptr %2, align 8, !tbaa !13
  %15 = getelementptr inbounds nuw %struct._zval_struct, ptr %14, i32 0, i32 0
  %16 = load i64, ptr %15, align 8, !tbaa !15
  br label %20

17:                                               ; preds = %1
  %18 = load ptr, ptr %2, align 8, !tbaa !13
  %19 = call i64 @zval_get_long_func(ptr noundef %18, i1 noundef zeroext false)
  br label %20

20:                                               ; preds = %17, %13
  %21 = phi i64 [ %16, %13 ], [ %19, %17 ]
  ret i64 %21
}

; Function Attrs: alwaysinline nounwind uwtable
define internal zeroext i8 @zval_get_type(ptr noundef %0) #3 {
  %2 = alloca ptr, align 8
  store ptr %0, ptr %2, align 8, !tbaa !13
  %3 = load ptr, ptr %2, align 8, !tbaa !13
  %4 = getelementptr inbounds nuw %struct._zval_struct, ptr %3, i32 0, i32 1
  %5 = getelementptr inbounds nuw %struct.anon.0, ptr %4, i32 0, i32 0
  %6 = load i8, ptr %5, align 8, !tbaa !15
  ret i8 %6
}

; Function Attrs: nounwind uwtable
define dso_local zeroext i1 @pdo_get_long_param(ptr noundef %0, ptr noundef %1) #0 {
  %3 = alloca i1, align 1
  %4 = alloca ptr, align 8
  %5 = alloca ptr, align 8
  store ptr %0, ptr %4, align 8, !tbaa !108
  store ptr %1, ptr %5, align 8, !tbaa !13
  %6 = load ptr, ptr %5, align 8, !tbaa !13
  %7 = call zeroext i8 @zval_get_type(ptr noundef %6)
  %8 = zext i8 %7 to i32
  switch i32 %8, label %23 [
    i32 4, label %9
    i32 3, label %9
    i32 2, label %9
    i32 6, label %13
  ]

9:                                                ; preds = %2, %2, %2
  %10 = load ptr, ptr %5, align 8, !tbaa !13
  %11 = call i64 @zval_get_long(ptr noundef %10)
  %12 = load ptr, ptr %4, align 8, !tbaa !108
  store i64 %11, ptr %12, align 8, !tbaa !68
  store i1 true, ptr %3, align 1
  br label %26

13:                                               ; preds = %2
  %14 = load ptr, ptr %5, align 8, !tbaa !13
  %15 = getelementptr inbounds nuw %struct._zval_struct, ptr %14, i32 0, i32 0
  %16 = load ptr, ptr %15, align 8, !tbaa !15
  %17 = load ptr, ptr %4, align 8, !tbaa !108
  %18 = call zeroext i8 @is_numeric_str_function(ptr noundef %16, ptr noundef %17, ptr noundef null)
  %19 = zext i8 %18 to i32
  %20 = icmp eq i32 4, %19
  br i1 %20, label %21, label %22

21:                                               ; preds = %13
  store i1 true, ptr %3, align 1
  br label %26

22:                                               ; preds = %13
  br label %23

23:                                               ; preds = %2, %22
  %24 = load ptr, ptr %5, align 8, !tbaa !13
  %25 = call ptr @zend_zval_value_name(ptr noundef %24)
  call void (ptr, ...) @zend_type_error(ptr noundef @.str.35, ptr noundef %25)
  store i1 false, ptr %3, align 1
  br label %26

26:                                               ; preds = %23, %21, %9
  %27 = load i1, ptr %3, align 1
  ret i1 %27
}