; Function Attrs: nounwind uwtable
define dso_local noundef zeroext i1 @pdo_get_long_param(ptr noundef %0, ptr noundef %1) local_unnamed_addr #0 {
  %3 = getelementptr inbounds nuw i8, ptr %1, i64 8
  %4 = load i8, ptr %3, align 8, !tbaa !4
  switch i8 %4, label %14 [
    i8 6, label %10
    i8 4, label %5
    i8 2, label %7
    i8 3, label %7
  ], !prof !111

5:                                                ; preds = %2
  %6 = load i64, ptr %1, align 8, !tbaa !4
  br label %zval_get_long.exit

7:                                                ; preds = %2, %2
  %8 = tail call i64 @zval_get_long_func(ptr noundef nonnull %1, i1 noundef zeroext false) #13
  br label %zval_get_long.exit

zval_get_long.exit:                               ; preds = %5, %7
  %9 = phi i64 [ %6, %5 ], [ %8, %7 ]
  store i64 %9, ptr %0, align 8, !tbaa !112
  br label %16

10:                                               ; preds = %2
  %11 = load ptr, ptr %1, align 8, !tbaa !4
  %12 = tail call zeroext i8 @is_numeric_str_function(ptr noundef %11, ptr noundef %0, ptr noundef null) #13
  %13 = icmp eq i8 %12, 4
  br i1 %13, label %16, label %14

14:                                               ; preds = %2, %10
  %15 = tail call ptr @zend_zval_value_name(ptr noundef nonnull %1) #13
  tail call void (ptr, ...) @zend_type_error(ptr noundef nonnull @.str.35, ptr noundef %15) #13
  br label %16

16:                                               ; preds = %10, %14, %zval_get_long.exit
  %.0 = phi i1 [ false, %14 ], [ true, %zval_get_long.exit ], [ true, %10 ]
  ret i1 %.0
}